target datalayout = "e-m:e-p270:32:32-p271:32:32-p272:64:64-i64:64-i128:128-f80:128-n8:16:32:64-S128"
target triple = "x86_64-pc-linux-gnu"

%"class.std::vector.1" = type { %"struct.std::_Vector_base.2" }
%"struct.std::_Vector_base.2" = type { %"struct.std::_Vector_base<Luau::TypeError, std::allocator<Luau::TypeError>>::_Vector_impl" }
%"struct.std::_Vector_base<Luau::TypeError, std::allocator<Luau::TypeError>>::_Vector_impl" = type { %"struct.std::_Vector_base<Luau::TypeError, std::allocator<Luau::TypeError>>::_Vector_impl_data" }
%"struct.std::_Vector_base<Luau::TypeError, std::allocator<Luau::TypeError>>::_Vector_impl_data" = type { ptr, ptr, ptr }
%"class.Luau::DenseHashSet" = type { %"class.Luau::detail::DenseHashTable" }
%"class.Luau::detail::DenseHashTable" = type <{ ptr, i64, i64, ptr, [8 x i8] }>
%"struct.Luau::TypeFunctionContext" = type { %"struct.Luau::NotNull", %"struct.Luau::NotNull.9", %"struct.Luau::NotNull.10", %"struct.Luau::NotNull.11", %"struct.Luau::NotNull.12", %"struct.Luau::NotNull.13", %"struct.Luau::NotNull.14", %"struct.Luau::NotNull.15", ptr, ptr, %"class.std::optional" }
%"struct.Luau::NotNull" = type { ptr }
%"struct.Luau::NotNull.9" = type { ptr }
%"struct.Luau::NotNull.10" = type { ptr }
%"struct.Luau::NotNull.11" = type { ptr }
%"struct.Luau::NotNull.12" = type { ptr }
%"struct.Luau::NotNull.13" = type { ptr }
%"struct.Luau::NotNull.14" = type { ptr }
%"struct.Luau::NotNull.15" = type { ptr }
%"class.std::optional" = type { %"struct.std::_Optional_base" }
%"struct.std::_Optional_base" = type { %"struct.std::_Optional_payload" }
%"struct.std::_Optional_payload" = type { %"struct.std::_Optional_payload_base.base", [7 x i8] }
%"struct.std::_Optional_payload_base.base" = type <{ %"union.std::_Optional_payload_base<Luau::AstName>::_Storage", i8 }>
%"union.std::_Optional_payload_base<Luau::AstName>::_Storage" = type { %"struct.Luau::AstName" }
%"struct.Luau::AstName" = type { ptr }
%"class.Luau::DenseHashSet.26" = type { %"class.Luau::detail::DenseHashTable.27" }
%"class.Luau::detail::DenseHashTable.27" = type <{ ptr, i64, i64, ptr, [8 x i8] }>
%"class.std::vector.29" = type { %"struct.std::_Vector_base.30" }
%"struct.std::_Vector_base.30" = type { %"struct.std::_Vector_base<const Luau::Type *, std::allocator<const Luau::Type *>>::_Vector_impl" }
%"struct.std::_Vector_base<const Luau::Type *, std::allocator<const Luau::Type *>>::_Vector_impl" = type { %"struct.std::_Vector_base<const Luau::Type *, std::allocator<const Luau::Type *>>::_Vector_impl_data" }
%"struct.std::_Vector_base<const Luau::Type *, std::allocator<const Luau::Type *>>::_Vector_impl_data" = type { ptr, ptr, ptr }
%"class.std::__cxx11::basic_string" = type { %"struct.std::__cxx11::basic_string<char>::_Alloc_hider", i64, %union.anon }
%"struct.std::__cxx11::basic_string<char>::_Alloc_hider" = type { ptr }
%union.anon = type { i64, [8 x i8] }
%"class.std::vector.84" = type { %"struct.std::_Vector_base.85" }
%"struct.std::_Vector_base.85" = type { %"struct.std::_Vector_base<const Luau::TypePackVar *, std::allocator<const Luau::TypePackVar *>>::_Vector_impl" }
%"struct.std::_Vector_base<const Luau::TypePackVar *, std::allocator<const Luau::TypePackVar *>>::_Vector_impl" = type { %"struct.std::_Vector_base<const Luau::TypePackVar *, std::allocator<const Luau::TypePackVar *>>::_Vector_impl_data" }
%"struct.std::_Vector_base<const Luau::TypePackVar *, std::allocator<const Luau::TypePackVar *>>::_Vector_impl_data" = type { ptr, ptr, ptr }
%"class.std::vector.175" = type { %"struct.std::_Vector_base.176" }
%"struct.std::_Vector_base.176" = type { %"struct.std::_Vector_base<std::__cxx11::basic_string<char>, std::allocator<std::__cxx11::basic_string<char>>>::_Vector_impl" }
%"struct.std::_Vector_base<std::__cxx11::basic_string<char>, std::allocator<std::__cxx11::basic_string<char>>>::_Vector_impl" = type { %"struct.std::_Vector_base<std::__cxx11::basic_string<char>, std::allocator<std::__cxx11::basic_string<char>>>::_Vector_impl_data" }
%"struct.std::_Vector_base<std::__cxx11::basic_string<char>, std::allocator<std::__cxx11::basic_string<char>>>::_Vector_impl_data" = type { ptr, ptr, ptr }
%"class.std::__shared_count" = type { ptr }
%"class.std::_Function_base" = type { %"union.std::_Any_data", ptr }
%"union.std::_Any_data" = type { %"union.std::_Nocopy_types" }
%"union.std::_Nocopy_types" = type { { i64, i64 } }
%"struct.std::__detail::_Hash_node_base" = type { ptr }
%"struct.std::__detail::_Prime_rehash_policy" = type { float, i64 }
%"struct.Luau::TypeCheckLimits" = type { %"class.std::optional.114", %"class.std::optional.122", %"class.std::optional.122", %"class.std::shared_ptr" }
%"class.std::optional.114" = type { %"struct.std::_Optional_base.115" }
%"struct.std::_Optional_base.115" = type { %"struct.std::_Optional_payload.117" }
%"struct.std::_Optional_payload.117" = type { %"struct.std::_Optional_payload_base.base.119", [7 x i8] }
%"struct.std::_Optional_payload_base.base.119" = type <{ %"union.std::_Optional_payload_base<double>::_Storage", i8 }>
%"union.std::_Optional_payload_base<double>::_Storage" = type { double }
%"class.std::optional.122" = type { %"struct.std::_Optional_base.123" }
%"struct.std::_Optional_base.123" = type { %"struct.std::_Optional_payload.125" }
%"struct.std::_Optional_payload.125" = type { %"struct.std::_Optional_payload_base.base.127", [3 x i8] }
%"struct.std::_Optional_payload_base.base.127" = type <{ %"union.std::_Optional_payload_base<int>::_Storage", i8 }>
%"union.std::_Optional_payload_base<int>::_Storage" = type { i32 }
%"class.std::shared_ptr" = type { %"class.std::__shared_ptr" }
%"class.std::__shared_ptr" = type { ptr, %"class.std::__shared_count" }
%"struct.Luau::NotNull.528" = type { ptr }
%"struct.Luau::NotNull.529" = type { ptr }
%"struct.Luau::ConstraintSolver" = type { %"struct.Luau::NotNull", %"struct.Luau::NotNull.9", %"struct.Luau::InternalErrorReporter", %"struct.Luau::NotNull.12", %"struct.Luau::NotNull.11", %"struct.Luau::NotNull.13", %"class.std::vector.34", %"struct.Luau::NotNull.10", %"class.std::__cxx11::basic_string", %"struct.Luau::NotNull.39", %"class.std::vector.40", %"class.std::vector.45", %"class.std::unordered_map", %"class.std::unordered_map.55", %"class.Luau::DenseHashMap", %"class.Luau::DenseHashMap.87", %"class.Luau::DenseHashMap.90", %"class.std::unordered_map.93", %"class.Luau::DenseHashSet.26", %"class.Luau::DenseHashSet", %"struct.Luau::NotNull.107", %"class.std::vector.1", %"struct.Luau::NotNull.108", %"class.std::vector.109", ptr, %"struct.Luau::TypeCheckLimits", %"class.Luau::DenseHashMap.130", %"struct.Luau::ToStringOptions" }
%"struct.Luau::InternalErrorReporter" = type { %"class.std::function", %"class.std::__cxx11::basic_string" }
%"class.std::function" = type { %"class.std::_Function_base", ptr }
%"class.std::vector.34" = type { %"struct.std::_Vector_base.35" }
%"struct.std::_Vector_base.35" = type { %"struct.std::_Vector_base<Luau::NotNull<Luau::Constraint>, std::allocator<Luau::NotNull<Luau::Constraint>>>::_Vector_impl" }
%"struct.std::_Vector_base<Luau::NotNull<Luau::Constraint>, std::allocator<Luau::NotNull<Luau::Constraint>>>::_Vector_impl" = type { %"struct.std::_Vector_base<Luau::NotNull<Luau::Constraint>, std::allocator<Luau::NotNull<Luau::Constraint>>>::_Vector_impl_data" }
%"struct.std::_Vector_base<Luau::NotNull<Luau::Constraint>, std::allocator<Luau::NotNull<Luau::Constraint>>>::_Vector_impl_data" = type { ptr, ptr, ptr }
%"struct.Luau::NotNull.39" = type { ptr }
%"class.std::vector.40" = type { %"struct.std::_Vector_base.41" }
%"struct.std::_Vector_base.41" = type { %"struct.std::_Vector_base<std::unique_ptr<Luau::Constraint>, std::allocator<std::unique_ptr<Luau::Constraint>>>::_Vector_impl" }
%"struct.std::_Vector_base<std::unique_ptr<Luau::Constraint>, std::allocator<std::unique_ptr<Luau::Constraint>>>::_Vector_impl" = type { %"struct.std::_Vector_base<std::unique_ptr<Luau::Constraint>, std::allocator<std::unique_ptr<Luau::Constraint>>>::_Vector_impl_data" }
%"struct.std::_Vector_base<std::unique_ptr<Luau::Constraint>, std::allocator<std::unique_ptr<Luau::Constraint>>>::_Vector_impl_data" = type { ptr, ptr, ptr }
%"class.std::vector.45" = type { %"struct.std::_Vector_base.46" }
%"struct.std::_Vector_base.46" = type { %"struct.std::_Vector_base<Luau::NotNull<const Luau::Constraint>, std::allocator<Luau::NotNull<const Luau::Constraint>>>::_Vector_impl" }
%"struct.std::_Vector_base<Luau::NotNull<const Luau::Constraint>, std::allocator<Luau::NotNull<const Luau::Constraint>>>::_Vector_impl" = type { %"struct.std::_Vector_base<Luau::NotNull<const Luau::Constraint>, std::allocator<Luau::NotNull<const Luau::Constraint>>>::_Vector_impl_data" }
%"struct.std::_Vector_base<Luau::NotNull<const Luau::Constraint>, std::allocator<Luau::NotNull<const Luau::Constraint>>>::_Vector_impl_data" = type { ptr, ptr, ptr }
%"class.std::unordered_map" = type { %"class.std::_Hashtable" }
%"class.std::_Hashtable" = type { ptr, i64, %"struct.std::__detail::_Hash_node_base", i64, %"struct.std::__detail::_Prime_rehash_policy", ptr }
%"class.std::unordered_map.55" = type { %"class.std::_Hashtable.56" }
%"class.std::_Hashtable.56" = type { ptr, i64, %"struct.std::__detail::_Hash_node_base", i64, %"struct.std::__detail::_Prime_rehash_policy", ptr }
%"class.Luau::DenseHashMap" = type { %"class.Luau::detail::DenseHashTable.73" }
%"class.Luau::detail::DenseHashTable.73" = type <{ ptr, i64, i64, %"struct.Luau::InstantiationSignature", [8 x i8] }>
%"struct.Luau::InstantiationSignature" = type { %"struct.Luau::TypeFun", %"class.std::vector.29", %"class.std::vector.84" }
%"struct.Luau::TypeFun" = type { %"class.std::vector.74", %"class.std::vector.79", ptr }
%"class.std::vector.74" = type { %"struct.std::_Vector_base.75" }
%"struct.std::_Vector_base.75" = type { %"struct.std::_Vector_base<Luau::GenericTypeDefinition, std::allocator<Luau::GenericTypeDefinition>>::_Vector_impl" }
%"struct.std::_Vector_base<Luau::GenericTypeDefinition, std::allocator<Luau::GenericTypeDefinition>>::_Vector_impl" = type { %"struct.std::_Vector_base<Luau::GenericTypeDefinition, std::allocator<Luau::GenericTypeDefinition>>::_Vector_impl_data" }
%"struct.std::_Vector_base<Luau::GenericTypeDefinition, std::allocator<Luau::GenericTypeDefinition>>::_Vector_impl_data" = type { ptr, ptr, ptr }
%"class.std::vector.79" = type { %"struct.std::_Vector_base.80" }
%"struct.std::_Vector_base.80" = type { %"struct.std::_Vector_base<Luau::GenericTypePackDefinition, std::allocator<Luau::GenericTypePackDefinition>>::_Vector_impl" }
%"struct.std::_Vector_base<Luau::GenericTypePackDefinition, std::allocator<Luau::GenericTypePackDefinition>>::_Vector_impl" = type { %"struct.std::_Vector_base<Luau::GenericTypePackDefinition, std::allocator<Luau::GenericTypePackDefinition>>::_Vector_impl_data" }
%"struct.std::_Vector_base<Luau::GenericTypePackDefinition, std::allocator<Luau::GenericTypePackDefinition>>::_Vector_impl_data" = type { ptr, ptr, ptr }
%"class.Luau::DenseHashMap.87" = type { %"class.Luau::detail::DenseHashTable.88" }
%"class.Luau::detail::DenseHashTable.88" = type <{ ptr, i64, i64, ptr, [8 x i8] }>
%"class.Luau::DenseHashMap.90" = type { %"class.Luau::detail::DenseHashTable.91" }
%"class.Luau::detail::DenseHashTable.91" = type <{ ptr, i64, i64, ptr, [8 x i8] }>
%"class.std::unordered_map.93" = type { %"class.std::_Hashtable.94" }
%"class.std::_Hashtable.94" = type { ptr, i64, %"struct.std::__detail::_Hash_node_base", i64, %"struct.std::__detail::_Prime_rehash_policy", ptr }
%"struct.Luau::NotNull.107" = type { ptr }
%"struct.Luau::NotNull.108" = type { ptr }
%"class.std::vector.109" = type { %"struct.std::_Vector_base.110" }
%"struct.std::_Vector_base.110" = type { %"struct.std::_Vector_base<Luau::RequireCycle, std::allocator<Luau::RequireCycle>>::_Vector_impl" }
%"struct.std::_Vector_base<Luau::RequireCycle, std::allocator<Luau::RequireCycle>>::_Vector_impl" = type { %"struct.std::_Vector_base<Luau::RequireCycle, std::allocator<Luau::RequireCycle>>::_Vector_impl_data" }
%"struct.std::_Vector_base<Luau::RequireCycle, std::allocator<Luau::RequireCycle>>::_Vector_impl_data" = type { ptr, ptr, ptr }
%"class.Luau::DenseHashMap.130" = type { %"class.Luau::detail::DenseHashTable.131" }
%"class.Luau::detail::DenseHashTable.131" = type <{ ptr, i64, i64, ptr, [8 x i8] }>
%"struct.Luau::ToStringOptions" = type { i8, i8, i8, i8, i8, i8, i8, i64, i64, i64, %"struct.Luau::ToStringNameMap", %"class.std::shared_ptr.172", %"class.std::vector.175" }
%"struct.Luau::ToStringNameMap" = type { %"class.std::unordered_map.133", %"class.std::unordered_map.152" }
%"class.std::unordered_map.133" = type { %"class.std::_Hashtable.134" }
%"class.std::_Hashtable.134" = type { ptr, i64, %"struct.std::__detail::_Hash_node_base", i64, %"struct.std::__detail::_Prime_rehash_policy", ptr }
%"class.std::unordered_map.152" = type { %"class.std::_Hashtable.153" }
%"class.std::_Hashtable.153" = type { ptr, i64, %"struct.std::__detail::_Hash_node_base", i64, %"struct.std::__detail::_Prime_rehash_policy", ptr }
%"class.std::shared_ptr.172" = type { %"class.std::__shared_ptr.173" }
%"class.std::__shared_ptr.173" = type { ptr, %"class.std::__shared_count" }
%"struct.std::_Optional_payload_base" = type <{ %"union.std::_Optional_payload_base<Luau::AstName>::_Storage", i8, [7 x i8] }>

; Function Attrs: mustprogress nounwind uwtable
define linkonce_odr dso_local void @_ZNSt22_Optional_payload_baseIN4Luau7AstNameEE8_StorageIS1_Lb1EEC2Ev(ptr noundef nonnull align 8 dereferenceable(8) %0) unnamed_addr #2 comdat align 2 {
  %2 = alloca ptr, align 8
  store ptr %0, ptr %2, align 8, !tbaa !1881
  ret void
}

; Function Attrs: mustprogress nounwind uwtable
define linkonce_odr dso_local void @_ZNSt22_Optional_payload_baseIN4Luau7AstNameEEC2Ev(ptr noundef nonnull align 8 dereferenceable(9) %0) unnamed_addr #2 comdat align 2 {
  %2 = alloca ptr, align 8
  store ptr %0, ptr %2, align 8, !tbaa !1879
  %3 = load ptr, ptr %2, align 8
  %4 = getelementptr inbounds nuw %"struct.std::_Optional_payload_base", ptr %3, i32 0, i32 0
  call void @_ZNSt22_Optional_payload_baseIN4Luau7AstNameEE8_StorageIS1_Lb1EEC2Ev(ptr noundef nonnull align 8 dereferenceable(8) %4) #4
  %5 = getelementptr inbounds nuw %"struct.std::_Optional_payload_base", ptr %3, i32 0, i32 1
  store i8 0, ptr %5, align 8, !tbaa !1391
  ret void
}

; Function Attrs: mustprogress nounwind uwtable
define linkonce_odr dso_local void @_ZNSt17_Optional_payloadIN4Luau7AstNameELb1ELb1ELb1EEC2Ev(ptr noundef nonnull align 8 dereferenceable(9) %0) unnamed_addr #2 comdat align 2 {
  %2 = alloca ptr, align 8
  store ptr %0, ptr %2, align 8, !tbaa !1877
  %3 = load ptr, ptr %2, align 8
  call void @_ZNSt22_Optional_payload_baseIN4Luau7AstNameEEC2Ev(ptr noundef nonnull align 8 dereferenceable(9) %3) #4
  ret void
}

; Function Attrs: mustprogress nounwind uwtable
define linkonce_odr dso_local void @_ZNSt14_Optional_baseIN4Luau7AstNameELb1ELb1EEC2Ev(ptr noundef nonnull align 8 dereferenceable(16) %0) unnamed_addr #2 comdat align 2 {
  %2 = alloca ptr, align 8
  store ptr %0, ptr %2, align 8, !tbaa !1875
  %3 = load ptr, ptr %2, align 8
  %4 = getelementptr inbounds nuw %"struct.std::_Optional_base", ptr %3, i32 0, i32 0
  call void @_ZNSt17_Optional_payloadIN4Luau7AstNameELb1ELb1ELb1EEC2Ev(ptr noundef nonnull align 8 dereferenceable(9) %4) #4
  ret void
}

; Function Attrs: mustprogress nounwind uwtable
define linkonce_odr dso_local void @_ZNSt8optionalIN4Luau7AstNameEEC2Ev(ptr noundef nonnull align 8 dereferenceable(16) %0) unnamed_addr #2 comdat align 2 {
  %2 = alloca ptr, align 8
  store ptr %0, ptr %2, align 8, !tbaa !358
  %3 = load ptr, ptr %2, align 8
  call void @_ZNSt14_Optional_baseIN4Luau7AstNameELb1ELb1EEC2Ev(ptr noundef nonnull align 8 dereferenceable(16) %3) #4
  ret void
}

; Function Attrs: mustprogress nounwind uwtable
define linkonce_odr dso_local noundef ptr @_ZNK4Luau7NotNullIKNS_10ConstraintEE3getEv(ptr noundef nonnull align 8 dereferenceable(8) %0) #2 comdat align 2 {
  %2 = alloca ptr, align 8
  store ptr %0, ptr %2, align 8, !tbaa !578
  %3 = load ptr, ptr %2, align 8
  %4 = getelementptr inbounds nuw %"struct.Luau::NotNull.529", ptr %3, i32 0, i32 0
  %5 = load ptr, ptr %4, align 8, !tbaa !580
  ret ptr %5
}

; Function Attrs: mustprogress nounwind uwtable
define linkonce_odr dso_local noundef ptr @_ZNK4Luau7NotNullINS_16ConstraintSolverEE3getEv(ptr noundef nonnull align 8 dereferenceable(8) %0) #2 comdat align 2 {
  %2 = alloca ptr, align 8
  store ptr %0, ptr %2, align 8, !tbaa !571
  %3 = load ptr, ptr %2, align 8
  %4 = getelementptr inbounds nuw %"struct.Luau::NotNull.528", ptr %3, i32 0, i32 0
  %5 = load ptr, ptr %4, align 8, !tbaa !573
  ret ptr %5
}

; Function Attrs: mustprogress nounwind uwtable
define linkonce_odr dso_local void @_ZN4Luau7NotNullINS_15TypeCheckLimitsEEC2EPS1_(ptr noundef nonnull align 8 dereferenceable(8) %0, ptr noundef %1) unnamed_addr #2 comdat align 2 {
  %3 = alloca ptr, align 8
  %4 = alloca ptr, align 8
  store ptr %0, ptr %3, align 8, !tbaa !575
  store ptr %1, ptr %4, align 8, !tbaa !498
  %5 = load ptr, ptr %3, align 8
  %6 = getelementptr inbounds nuw %"struct.Luau::NotNull.15", ptr %5, i32 0, i32 0
  %7 = load ptr, ptr %4, align 8, !tbaa !498
  store ptr %7, ptr %6, align 8, !tbaa !577
  ret void
}

; Function Attrs: mustprogress nounwind uwtable
define linkonce_odr dso_local void @_ZN4Luau7NotNullINS_21InternalErrorReporterEEC2EPS1_(ptr noundef nonnull align 8 dereferenceable(8) %0, ptr noundef %1) unnamed_addr #2 comdat align 2 {
  %3 = alloca ptr, align 8
  %4 = alloca ptr, align 8
  store ptr %0, ptr %3, align 8, !tbaa !353
  store ptr %1, ptr %4, align 8, !tbaa !500
  %5 = load ptr, ptr %3, align 8
  %6 = getelementptr inbounds nuw %"struct.Luau::NotNull.14", ptr %5, i32 0, i32 0
  %7 = load ptr, ptr %4, align 8, !tbaa !500
  store ptr %7, ptr %6, align 8, !tbaa !355
  ret void
}

; Function Attrs: mustprogress nounwind uwtable
define linkonce_odr dso_local noundef ptr @_ZNK4Luau7NotNullINS_16ConstraintSolverEEptEv(ptr noundef nonnull align 8 dereferenceable(8) %0) #2 comdat align 2 {
  %2 = alloca ptr, align 8
  store ptr %0, ptr %2, align 8, !tbaa !571
  %3 = load ptr, ptr %2, align 8
  %4 = getelementptr inbounds nuw %"struct.Luau::NotNull.528", ptr %3, i32 0, i32 0
  %5 = load ptr, ptr %4, align 8, !tbaa !573
  ret ptr %5
}

; Function Attrs: mustprogress uwtable
define dso_local void @_ZN4Luau19TypeFunctionContextC2ENS_7NotNullINS_16ConstraintSolverEEENS1_INS_5ScopeEEENS1_IKNS_10ConstraintEEE(ptr noundef nonnull align 8 dereferenceable(96) %0, ptr %1, ptr %2, ptr %3) unnamed_addr #6 align 2 {
  %5 = alloca %"struct.Luau::NotNull.528", align 8
  %6 = alloca %"struct.Luau::NotNull.10", align 8
  %7 = alloca %"struct.Luau::NotNull.529", align 8
  %8 = alloca ptr, align 8
  %9 = getelementptr inbounds nuw %"struct.Luau::NotNull.528", ptr %5, i32 0, i32 0
  store ptr %1, ptr %9, align 8
  %10 = getelementptr inbounds nuw %"struct.Luau::NotNull.10", ptr %6, i32 0, i32 0
  store ptr %2, ptr %10, align 8
  %11 = getelementptr inbounds nuw %"struct.Luau::NotNull.529", ptr %7, i32 0, i32 0
  store ptr %3, ptr %11, align 8
  store ptr %0, ptr %8, align 8, !tbaa !466
  %12 = load ptr, ptr %8, align 8
  %13 = getelementptr inbounds nuw %"struct.Luau::TypeFunctionContext", ptr %12, i32 0, i32 0
  %14 = call noundef ptr @_ZNK4Luau7NotNullINS_16ConstraintSolverEEptEv(ptr noundef nonnull align 8 dereferenceable(8) %5) #4
  %15 = getelementptr inbounds nuw %"struct.Luau::ConstraintSolver", ptr %14, i32 0, i32 0
  call void @llvm.memcpy.p0.p0.i64(ptr align 8 %13, ptr align 8 %15, i64 8, i1 false), !tbaa.struct !495
  %16 = getelementptr inbounds nuw %"struct.Luau::TypeFunctionContext", ptr %12, i32 0, i32 1
  %17 = call noundef ptr @_ZNK4Luau7NotNullINS_16ConstraintSolverEEptEv(ptr noundef nonnull align 8 dereferenceable(8) %5) #4
  %18 = getelementptr inbounds nuw %"struct.Luau::ConstraintSolver", ptr %17, i32 0, i32 1
  call void @llvm.memcpy.p0.p0.i64(ptr align 8 %16, ptr align 8 %18, i64 8, i1 false), !tbaa.struct !493
  %19 = getelementptr inbounds nuw %"struct.Luau::TypeFunctionContext", ptr %12, i32 0, i32 2
  call void @llvm.memcpy.p0.p0.i64(ptr align 8 %19, ptr align 8 %6, i64 8, i1 false), !tbaa.struct !489
  %20 = getelementptr inbounds nuw %"struct.Luau::TypeFunctionContext", ptr %12, i32 0, i32 3
  %21 = call noundef ptr @_ZNK4Luau7NotNullINS_16ConstraintSolverEEptEv(ptr noundef nonnull align 8 dereferenceable(8) %5) #4
  %22 = getelementptr inbounds nuw %"struct.Luau::ConstraintSolver", ptr %21, i32 0, i32 4
  call void @llvm.memcpy.p0.p0.i64(ptr align 8 %20, ptr align 8 %22, i64 8, i1 false), !tbaa.struct !501
  %23 = getelementptr inbounds nuw %"struct.Luau::TypeFunctionContext", ptr %12, i32 0, i32 4
  %24 = call noundef ptr @_ZNK4Luau7NotNullINS_16ConstraintSolverEEptEv(ptr noundef nonnull align 8 dereferenceable(8) %5) #4
  %25 = getelementptr inbounds nuw %"struct.Luau::ConstraintSolver", ptr %24, i32 0, i32 3
  call void @llvm.memcpy.p0.p0.i64(ptr align 8 %23, ptr align 8 %25, i64 8, i1 false), !tbaa.struct !503
  %26 = getelementptr inbounds nuw %"struct.Luau::TypeFunctionContext", ptr %12, i32 0, i32 5
  %27 = call noundef ptr @_ZNK4Luau7NotNullINS_16ConstraintSolverEEptEv(ptr noundef nonnull align 8 dereferenceable(8) %5) #4
  %28 = getelementptr inbounds nuw %"struct.Luau::ConstraintSolver", ptr %27, i32 0, i32 5
  call void @llvm.memcpy.p0.p0.i64(ptr align 8 %26, ptr align 8 %28, i64 8, i1 false), !tbaa.struct !505
  %29 = getelementptr inbounds nuw %"struct.Luau::TypeFunctionContext", ptr %12, i32 0, i32 6
  %30 = call noundef ptr @_ZNK4Luau7NotNullINS_16ConstraintSolverEEptEv(ptr noundef nonnull align 8 dereferenceable(8) %5) #4
  %31 = getelementptr inbounds nuw %"struct.Luau::ConstraintSolver", ptr %30, i32 0, i32 2
  call void @_ZN4Luau7NotNullINS_21InternalErrorReporterEEC2EPS1_(ptr noundef nonnull align 8 dereferenceable(8) %29, ptr noundef %31)
  %32 = getelementptr inbounds nuw %"struct.Luau::TypeFunctionContext", ptr %12, i32 0, i32 7
  %33 = call noundef ptr @_ZNK4Luau7NotNullINS_16ConstraintSolverEEptEv(ptr noundef nonnull align 8 dereferenceable(8) %5) #4
  %34 = getelementptr inbounds nuw %"struct.Luau::ConstraintSolver", ptr %33, i32 0, i32 25
  call void @_ZN4Luau7NotNullINS_15TypeCheckLimitsEEC2EPS1_(ptr noundef nonnull align 8 dereferenceable(8) %32, ptr noundef %34)
  %35 = getelementptr inbounds nuw %"struct.Luau::TypeFunctionContext", ptr %12, i32 0, i32 8
  %36 = call noundef ptr @_ZNK4Luau7NotNullINS_16ConstraintSolverEE3getEv(ptr noundef nonnull align 8 dereferenceable(8) %5) #4
  store ptr %36, ptr %35, align 8, !tbaa !312
  %37 = getelementptr inbounds nuw %"struct.Luau::TypeFunctionContext", ptr %12, i32 0, i32 9
  %38 = call noundef ptr @_ZNK4Luau7NotNullIKNS_10ConstraintEE3getEv(ptr noundef nonnull align 8 dereferenceable(8) %7) #4
  store ptr %38, ptr %37, align 8, !tbaa !570
  %39 = getelementptr inbounds nuw %"struct.Luau::TypeFunctionContext", ptr %12, i32 0, i32 10
  call void @_ZNSt8optionalIN4Luau7AstNameEEC2Ev(ptr noundef nonnull align 8 dereferenceable(16) %39) #4
  ret void
}