; Function Attrs: mustprogress nofree norecurse nosync nounwind willreturn memory(argmem: readwrite) uwtable
define dso_local void @_ZN4Luau19TypeFunctionContextC2ENS_7NotNullINS_16ConstraintSolverEEENS1_INS_5ScopeEEENS1_IKNS_10ConstraintEEE(ptr noundef nonnull writeonly align 8 captures(none) dereferenceable(96) initializes((0, 80), (88, 89)) %0, ptr %1, ptr %2, ptr %3) unnamed_addr #17 align 2 {
  %5 = load i64, ptr %1, align 8, !tbaa !401
  store i64 %5, ptr %0, align 8, !tbaa !401
  %6 = getelementptr inbounds nuw i8, ptr %0, i64 8
  %7 = getelementptr inbounds nuw i8, ptr %1, i64 8
  %8 = load i64, ptr %7, align 8, !tbaa !400
  store i64 %8, ptr %6, align 8, !tbaa !400
  %9 = getelementptr inbounds nuw i8, ptr %0, i64 16
  store ptr %2, ptr %9, align 8, !tbaa !396
  %10 = getelementptr inbounds nuw i8, ptr %0, i64 24
  %11 = getelementptr inbounds nuw i8, ptr %1, i64 88
  %12 = load i64, ptr %11, align 8, !tbaa !404
  store i64 %12, ptr %10, align 8, !tbaa !404
  %13 = getelementptr inbounds nuw i8, ptr %0, i64 32
  %14 = getelementptr inbounds nuw i8, ptr %1, i64 80
  %15 = load i64, ptr %14, align 8, !tbaa !405
  store i64 %15, ptr %13, align 8, !tbaa !405
  %16 = getelementptr inbounds nuw i8, ptr %0, i64 40
  %17 = getelementptr inbounds nuw i8, ptr %1, i64 96
  %18 = load i64, ptr %17, align 8, !tbaa !406
  store i64 %18, ptr %16, align 8, !tbaa !406
  %19 = getelementptr inbounds nuw i8, ptr %0, i64 48
  %20 = getelementptr inbounds nuw i8, ptr %1, i64 16
  store ptr %20, ptr %19, align 8, !tbaa !221
  %21 = getelementptr inbounds nuw i8, ptr %0, i64 56
  %22 = getelementptr inbounds nuw i8, ptr %1, i64 760
  store ptr %22, ptr %21, align 8, !tbaa !560
  %23 = getelementptr inbounds nuw i8, ptr %0, i64 64
  store ptr %1, ptr %23, align 8, !tbaa !276
  %24 = getelementptr inbounds nuw i8, ptr %0, i64 72
  store ptr %3, ptr %24, align 8, !tbaa !561
  %25 = getelementptr inbounds nuw i8, ptr %0, i64 88
  store i8 0, ptr %25, align 8, !tbaa !222
  ret void
}